; ModuleID = '17/1440.c'
source_filename = "17/1440.c"
target datalayout = "e-m:e-p270:32:32-p271:32:32-p272:64:64-i64:64-f80:128-n8:16:32:64-S128"
target triple = "x86_64-pc-linux-gnu"

@.str = private unnamed_addr constant [3 x i8] c"%s\00", align 1
@.str.1 = private unnamed_addr constant [3 x i8] c"%c\00", align 1
@.str.2 = private unnamed_addr constant [2 x i8] c"\0A\00", align 1

; Function Attrs: noinline nounwind uwtable
define dso_local i32 @main(i32 %0, i8** %1) #0 {
  %3 = alloca i32, align 4
  %4 = alloca i32, align 4
  %5 = alloca i8**, align 8
  %6 = alloca [100 x i8], align 16
  %7 = alloca [100 x i8], align 16
  %8 = alloca [100 x i32], align 16
  %9 = alloca i32, align 4
  %10 = alloca i32, align 4
  %11 = alloca i32, align 4
  store i32 0, i32* %3, align 4
  store i32 %0, i32* %4, align 4
  store i8** %1, i8*** %5, align 8
  store i32 0, i32* %9, align 4
  br label %12

12:                                               ; preds = %139, %2
  %13 = call i32 (i8*, ...) @__isoc99_scanf(i8* getelementptr inbounds ([3 x i8], [3 x i8]* @.str, i64 0, i64 0), [100 x i8]* %6)
  %14 = icmp ne i32 %13, -1
  br i1 %14, label %15, label %141

15:                                               ; preds = %12
  %16 = getelementptr inbounds [100 x i8], [100 x i8]* %6, i64 0, i64 0
  %17 = call i64 @strlen(i8* %16) #3
  %18 = trunc i64 %17 to i32
  store i32 %18, i32* %10, align 4
  %19 = getelementptr inbounds [100 x i8], [100 x i8]* %6, i64 0, i64 0
  %20 = call i32 @puts(i8* %19)
  store i32 0, i32* %11, align 4
  br label %21

21:                                               ; preds = %29, %15
  %22 = load i32, i32* %11, align 4
  %23 = load i32, i32* %10, align 4
  %24 = icmp slt i32 %22, %23
  br i1 %24, label %25, label %32

25:                                               ; preds = %21
  %26 = load i32, i32* %11, align 4
  %27 = sext i32 %26 to i64
  %28 = getelementptr inbounds [100 x i8], [100 x i8]* %7, i64 0, i64 %27
  store i8 32, i8* %28, align 1
  br label %29

29:                                               ; preds = %25
  %30 = load i32, i32* %11, align 4
  %31 = add nsw i32 %30, 1
  store i32 %31, i32* %11, align 4
  br label %21

32:                                               ; preds = %21
  store i32 0, i32* %11, align 4
  br label %33

33:                                               ; preds = %52, %32
  %34 = load i32, i32* %11, align 4
  %35 = load i32, i32* %10, align 4
  %36 = icmp slt i32 %34, %35
  br i1 %36, label %37, label %55

37:                                               ; preds = %33
  %38 = load i32, i32* %11, align 4
  %39 = sext i32 %38 to i64
  %40 = getelementptr inbounds [100 x i8], [100 x i8]* %6, i64 0, i64 %39
  %41 = load i8, i8* %40, align 1
  %42 = sext i8 %41 to i32
  %43 = icmp eq i32 %42, 40
  br i1 %43, label %44, label %51

44:                                               ; preds = %37
  %45 = load i32, i32* %9, align 4
  %46 = add nsw i32 %45, 1
  store i32 %46, i32* %9, align 4
  %47 = load i32, i32* %11, align 4
  %48 = load i32, i32* %9, align 4
  %49 = sext i32 %48 to i64
  %50 = getelementptr inbounds [100 x i32], [100 x i32]* %8, i64 0, i64 %49
  store i32 %47, i32* %50, align 4
  br label %51

51:                                               ; preds = %44, %37
  br label %52

52:                                               ; preds = %51
  %53 = load i32, i32* %11, align 4
  %54 = add nsw i32 %53, 1
  store i32 %54, i32* %11, align 4
  br label %33

55:                                               ; preds = %33
  br label %56

56:                                               ; preds = %90, %55
  %57 = load i32, i32* %9, align 4
  %58 = icmp sgt i32 %57, 0
  br i1 %58, label %59, label %93

59:                                               ; preds = %56
  %60 = load i32, i32* %9, align 4
  %61 = sext i32 %60 to i64
  %62 = getelementptr inbounds [100 x i32], [100 x i32]* %8, i64 0, i64 %61
  %63 = load i32, i32* %62, align 4
  store i32 %63, i32* %11, align 4
  br label %64

64:                                               ; preds = %86, %59
  %65 = load i32, i32* %11, align 4
  %66 = load i32, i32* %10, align 4
  %67 = icmp slt i32 %65, %66
  br i1 %67, label %68, label %89

68:                                               ; preds = %64
  %69 = load i32, i32* %11, align 4
  %70 = sext i32 %69 to i64
  %71 = getelementptr inbounds [100 x i8], [100 x i8]* %6, i64 0, i64 %70
  %72 = load i8, i8* %71, align 1
  %73 = sext i8 %72 to i32
  %74 = icmp eq i32 %73, 41
  br i1 %74, label %75, label %85

75:                                               ; preds = %68
  %76 = load i32, i32* %11, align 4
  %77 = sext i32 %76 to i64
  %78 = getelementptr inbounds [100 x i8], [100 x i8]* %6, i64 0, i64 %77
  store i8 32, i8* %78, align 1
  %79 = load i32, i32* %9, align 4
  %80 = sext i32 %79 to i64
  %81 = getelementptr inbounds [100 x i32], [100 x i32]* %8, i64 0, i64 %80
  %82 = load i32, i32* %81, align 4
  %83 = sext i32 %82 to i64
  %84 = getelementptr inbounds [100 x i8], [100 x i8]* %6, i64 0, i64 %83
  store i8 32, i8* %84, align 1
  br label %89

85:                                               ; preds = %68
  br label %86

86:                                               ; preds = %85
  %87 = load i32, i32* %11, align 4
  %88 = add nsw i32 %87, 1
  store i32 %88, i32* %11, align 4
  br label %64

89:                                               ; preds = %75, %64
  br label %90

90:                                               ; preds = %89
  %91 = load i32, i32* %9, align 4
  %92 = add nsw i32 %91, -1
  store i32 %92, i32* %9, align 4
  br label %56

93:                                               ; preds = %56
  store i32 0, i32* %11, align 4
  br label %94

94:                                               ; preds = %121, %93
  %95 = load i32, i32* %11, align 4
  %96 = load i32, i32* %10, align 4
  %97 = icmp slt i32 %95, %96
  br i1 %97, label %98, label %124

98:                                               ; preds = %94
  %99 = load i32, i32* %11, align 4
  %100 = sext i32 %99 to i64
  %101 = getelementptr inbounds [100 x i8], [100 x i8]* %6, i64 0, i64 %100
  %102 = load i8, i8* %101, align 1
  %103 = sext i8 %102 to i32
  %104 = icmp eq i32 %103, 40
  br i1 %104, label %105, label %109

105:                                              ; preds = %98
  %106 = load i32, i32* %11, align 4
  %107 = sext i32 %106 to i64
  %108 = getelementptr inbounds [100 x i8], [100 x i8]* %7, i64 0, i64 %107
  store i8 36, i8* %108, align 1
  br label %109

109:                                              ; preds = %105, %98
  %110 = load i32, i32* %11, align 4
  %111 = sext i32 %110 to i64
  %112 = getelementptr inbounds [100 x i8], [100 x i8]* %6, i64 0, i64 %111
  %113 = load i8, i8* %112, align 1
  %114 = sext i8 %113 to i32
  %115 = icmp eq i32 %114, 41
  br i1 %115, label %116, label %120

116:                                              ; preds = %109
  %117 = load i32, i32* %11, align 4
  %118 = sext i32 %117 to i64
  %119 = getelementptr inbounds [100 x i8], [100 x i8]* %7, i64 0, i64 %118
  store i8 63, i8* %119, align 1
  br label %120

120:                                              ; preds = %116, %109
  br label %121

121:                                              ; preds = %120
  %122 = load i32, i32* %11, align 4
  %123 = add nsw i32 %122, 1
  store i32 %123, i32* %11, align 4
  br label %94

124:                                              ; preds = %94
  store i32 0, i32* %11, align 4
  br label %125

125:                                              ; preds = %136, %124
  %126 = load i32, i32* %11, align 4
  %127 = load i32, i32* %10, align 4
  %128 = icmp slt i32 %126, %127
  br i1 %128, label %129, label %139

129:                                              ; preds = %125
  %130 = load i32, i32* %11, align 4
  %131 = sext i32 %130 to i64
  %132 = getelementptr inbounds [100 x i8], [100 x i8]* %7, i64 0, i64 %131
  %133 = load i8, i8* %132, align 1
  %134 = sext i8 %133 to i32
  %135 = call i32 (i8*, ...) @printf(i8* getelementptr inbounds ([3 x i8], [3 x i8]* @.str.1, i64 0, i64 0), i32 %134)
  br label %136

136:                                              ; preds = %129
  %137 = load i32, i32* %11, align 4
  %138 = add nsw i32 %137, 1
  store i32 %138, i32* %11, align 4
  br label %125

139:                                              ; preds = %125
  %140 = call i32 (i8*, ...) @printf(i8* getelementptr inbounds ([2 x i8], [2 x i8]* @.str.2, i64 0, i64 0))
  br label %12

141:                                              ; preds = %12
  ret i32 0
}

declare dso_local i32 @__isoc99_scanf(i8*, ...) #1

; Function Attrs: nounwind readonly
declare dso_local i64 @strlen(i8*) #2

declare dso_local i32 @puts(i8*) #1

declare dso_local i32 @printf(i8*, ...) #1


!llvm.module.flags = !{!0}
!llvm.ident = !{!1}

!0 = !{i32 1, !"wchar_size", i32 4}
!1 = !{!"clang version 10.0.0-4ubuntu1 "}
